(dp0
S'levels/level_1'
p1
F10.703
sS'survival/sky_survival'
p2
F21.484
sS'levels/stuff'
p3
F5.518
sS'levels/whaat'
p4
F14.063
sS'survival/default'
p5
F18.792
sS'levels/sky_race'
p6
F16.26
sS'levels/ledges'
p7
F15.262
sS'levels/town'
p8
F13.536
s.