(dp0
S'buildings'
p1
(lp2
(I0
F7.199999999999989
I0
F-64.39999999999996
I0
tp3
a(I0
F-34.60000000000002
I0
F-3.8
I0
tp4
a(I0
F131.39999999999998
I0
F-13.999999999999977
I0
tp5
a(I0
F-49.60000000000002
I0
F42.400000000000034
I0
tp6
a(I0
F13.799999999999988
I0
F31.600000000000005
I0
tp7
a(I0
F-96.00000000000003
I0
F-13.0
I0
tp8
a(I0
F-62.40000000000001
I0
F-61.0
I0
tp9
a(I0
F61.59999999999999
I0
F30.600000000000016
I0
tp10
a(I0
F3.5999999999999828
I0
F84.20000000000003
I0
tp11
a(I0
F81.39999999999999
I0
F-43.39999999999997
I0
tp12
a(I0
F112.39999999999998
I0
F30.000000000000018
I0
tp13
a(I0
F60.39999999999998
I0
F-93.4
I0
tp14
asS'elevators'
p15
(lp16
sS'spawn_pos'
p17
(lp18
I0
aI0
aI0
asS'vehicles'
p19
(lp20
sS'terrain'
p21
(lp22
S'models/Level1'
p23
aS'dirt.jpg'
p24
asS'platforms'
p25
(lp26
sS'goal_pos'
p27
(lp28
F36.999999999999986
aI0
aF17.800000000000004
asS'powerups'
p29
(lp30
sS'enemies'
p31
(lp32
(F3.0
F73.0
I0
F46.0
I0
tp33
a(F3.0
F77.0
I0
F58.6
I0
tp34
a(F3.0
F41.8
I0
F52.0
I0
tp35
a(F3.0
F77.0
I0
F58.6
I0
tp36
a(F3.0
F68.6
I0
F56.8
I0
tp37
a(F1.0
F75.4
I0
F7.0
I0
tp38
a(F3.0
F54.4
I0
F52.2
I0
tp39
a(F3.0
F59.79999999999999
I0
F50.4
I0
tp40
a(F3.0
F54.2
I0
F62.6
I0
tp41
as.