(dp0
S'buildings'
p1
(lp2
sS'elevators'
p3
(lp4
sS'spawn_pos'
p5
(lp6
F89.6
aF226.0
aF49.79999999999999
asS'vehicles'
p7
(lp8
sS'terrain'
p9
(lp10
S'models/Level1'
p11
aS'dirt.jpg'
p12
asS'platforms'
p13
(lp14
(F1.0
F85.0
F200.0
F69.4
I0
tp15
a(F1.0
F115.4
F200.0
F45.79999999999999
I0
tp16
a(F1.0
F78.8
F200.0
F37.0
I0
tp17
a(F1.0
F115.4
F200.0
F54.4
I0
tp18
a(F1.0
F70.2
F200.0
F43.999999999999986
I0
tp19
a(F1.0
F107.6
F200.0
F29.79999999999999
I0
tp20
a(F1.0
F66.2
F200.0
F47.8
I0
tp21
a(F2.0
F70.8
F200.0
F77.8
I0
tp22
a(F1.0
F73.0
F200.0
F63.19999999999999
I0
tp23
a(F0.0
F89.6
F220.0
F49.4
I0
tp24
a(F1.0
F68.2
F200.0
F56.79999999999999
I0
tp25
a(F1.0
F113.8
F200.0
F37.19999999999999
I0
tp26
a(F1.0
F85.4
F200.0
F31.99999999999999
I0
tp27
a(F2.0
F96.0
F200.0
F55.0
I0
tp28
a(F1.0
F101.80000000000001
F200.0
F67.59999999999998
I0
tp29
a(F1.0
F78.4
F200.0
F66.19999999999999
I0
tp30
a(F1.0
F93.2
F200.0
F70.79999999999998
I0
tp31
a(F1.0
F93.8
F200.0
F28.799999999999994
I0
tp32
a(F1.0
F109.0
F200.0
F63.79999999999999
I0
tp33
asS'goal_pos'
p34
(lp35
I0
aI0
aI0
asS'powerups'
p36
(lp37
sS'enemies'
p38
(lp39
(F1.0
F98.2
F200.0
F37.999999999999986
I0
tp40
a(F0.0
F111.0
F200.0
F16.799999999999994
I0
tp41
a(F0.0
F63.6
F200.0
F29.19999999999999
I0
tp42
a(F0.0
F100.0
F200.0
F85.6
I0
tp43
as.