(dp0
S'buildings'
p1
(lp2
(I0
I16
I226
I-37
I180
tp3
a(I0
I0
I210
I-37
I270
tp4
a(I0
I0
I200
I0
I90
tp5
a(I0
I16
I242
I-37
I0
tp6
asS'elevators'
p7
(lp8
sS'spawn_pos'
p9
(lp10
I0
aF200.5
aI0
asS'vehicles'
p11
(lp12
(I1
I0
I218
I0
I0
tp13
asS'terrain'
p14
(lp15
S'models/Level1'
p16
aS'dirt.jpg'
p17
asS'platforms'
p18
(lp19
sS'goal_pos'
p20
(lp21
I16
aI262
aI-37
asS'powerups'
p22
(lp23
(I0
I16
I229
I-37
I0
tp24
asS'enemies'
p25
(lp26
s.