(dp0
S'buildings'
p1
(lp2
(I0
F202.2
F200.0
F-20.0
F180.0
tp3
a(I0
F-26.399999999999984
F200.0
F-17.19999999999999
I0
tp4
asS'elevators'
p5
(lp6
sS'spawn_pos'
p7
(lp8
F-26.399999999999988
aF200.0
aF-17.599999999999984
asS'vehicles'
p9
(lp10
sS'terrain'
p11
(lp12
S'models/Level1'
p13
aS'dirt.jpg'
p14
asS'platforms'
p15
(lp16
(F1.0
F86.60000000000001
F200.0
F3.2000000000000113
I0
tp17
a(F1.0
F78.8
F200.0
F3.5999999999999885
I0
tp18
a(F1.0
F59.4
F200.0
F3.0
I0
tp19
a(F1.0
F69.2
F200.0
F2.8
I0
tp20
asS'goal_pos'
p21
(lp22
F202.4
aF203.0
aF-19.6
asS'powerups'
p23
(lp24
(I0
F-15.99999999999999
F203.0
F-16.999999999999982
I0
tp25
a(I0
F96.99999999999993
F200.0
F-68.2
I0
tp26
a(I0
F96.99999999999993
F200.0
F-68.2
I0
tp27
asS'enemies'
p28
(lp29
(I0
F93.2
F200.0
F-100.39999999999995
I0
tp30
a(I0
F184.2
F200.0
F-51.59999999999998
I0
tp31
a(F1.0
F164.8
F200.0
F-32.99999999999998
I0
tp32
a(I0
F98.2
F200.0
F-35.59999999999995
I0
tp33
a(I0
F62.4
F200.0
F-70.99999999999996
I0
tp34
a(I0
F132.4
F200.0
F-75.39999999999995
I0
tp35
a(I0
F17.2
F200.0
F-43.79999999999997
I0
tp36
a(F1.0
F89.6
F200.0
F-65.60000000000002
I0
tp37
a(I0
F132.4
F200.0
F-75.39999999999995
I0
tp38
a(I0
F23.6
F200.0
F5.8000000000000345
I0
tp39
a(I0
F161.4
F200.0
F-3.799999999999977
I0
tp40
a(F2.0
F13.8
F230.0
F-17.399999999999977
I0
tp41
a(F1.0
F-28.4
F200.0
F-78.6
I0
tp42
as.