(dp0
S'buildings'
p1
(lp2
(I0
F99.8
F0.5
F56.0
F45.0
tp3
a(I0
F35.4
F20.0
F45.2
I0
tp4
a(I0
F35.6
I0
F49.39999999999999
I0
tp5
a(I0
F87.0
F70.0
F29.599999999999994
F270.0
tp6
a(I0
F75.6
F0.5
F69.8
F90.0
tp7
a(I0
F54.2
F0.5
F69.19999999999999
F90.0
tp8
asS'elevators'
p9
(lp10
(I0
F35.4
I0
F26.200000000000006
F270.0
tp11
asS'spawn_pos'
p12
(lp13
F35.800000000000004
aF0.0
aF50.0
asS'vehicles'
p14
(lp15
sS'terrain'
p16
(lp17
S'models/Level1'
p18
aS'dirt.jpg'
p19
asS'platforms'
p20
(lp21
(I0
F93.6
F50.0
F80.6
F90.0
tp22
a(I0
F101.4
F38.0
F69.19999999999999
F90.0
tp23
a(I0
F66.2
F0.0
F61.0
F45.0
tp24
a(I0
F85.8
F0.0
F68.0
F45.0
tp25
a(I0
F85.8
F0.0
F63.4
F45.0
tp26
a(I0
F87.0
F65.0
F53.19999999999999
F90.0
tp27
a(I0
F101.0
F23.0
F57.80000000000001
F90.0
tp28
a(I0
F62.8
F0.0
F60.2
F45.0
tp29
a(I0
F90.6
F0.0
F65.0
F45.0
tp30
asS'goal_pos'
p31
(lp32
F86.8
aF90.0
aF28.999999999999993
asS'powerups'
p33
(lp34
(I0
F35.6
F38.0
F45.6
I0
tp35
asS'enemies'
p36
(lp37
(F1.0
F75.0
F50.0
F53.0
I0
tp38
a(F1.0
F70.4
F50.0
F33.8
I0
tp39
as.