(dp0
S'buildings'
p1
(lp2
(I0
F102.6
F200.0
F81.79999999999998
I0
tp3
a(I0
F81.19999999999999
F200.0
F39.400000000000006
I0
tp4
a(I0
F102.4
F200.0
F47.8
I0
tp5
a(I0
F43.60000000000001
F200.0
F49.0
I0
tp6
a(I0
F110.4
F200.0
F113.0
I0
tp7
a(I0
F189.2
F200.0
F119.6
I0
tp8
a(I0
F63.4
F200.0
F54.0
I0
tp9
a(I0
F143.6
F200.0
F136.6
I0
tp10
a(I0
F24.2
F200.0
F46.8
I0
tp11
asS'elevators'
p12
(lp13
sS'spawn_pos'
p14
(lp15
F24.6
aF220.0
aF47.8
asS'vehicles'
p16
(lp17
sS'terrain'
p18
(lp19
S'models/Level1'
p20
aS'dirt.jpg'
p21
asS'platforms'
p22
(lp23
sS'goal_pos'
p24
(lp25
F188.8
aF220.0
aF119.6
asS'powerups'
p26
(lp27
sS'enemies'
p28
(lp29
(I0
F113.0
F216.0
F115.40000000000002
I0
tp30
a(F2.0
F174.0
F230.0
F118.79999999999998
I0
tp31
a(F1.0
F84.4
F240.0
F64.80000000000001
I0
tp32
a(I0
F149.6
F216.0
F139.8
I0
tp33
a(I0
F149.6
F216.0
F139.8
I0
tp34
a(I0
F149.4
F216.0
F135.2
I0
tp35
a(I0
F66.4
F216.0
F53.2
I0
tp36
a(I0
F149.6
F216.0
F131.0
I0
tp37
a(F1.0
F59.0
F240.0
F91.4
I0
tp38
a(F1.0
F76.4
F240.0
F87.8
I0
tp39
a(I0
F149.4
F216.0
F135.2
I0
tp40
as.